target datalayout = "e-m:e-p270:32:32-p271:32:32-p272:64:64-i64:64-i128:128-f80:128-n8:16:32:64-S128"
target triple = "x86_64-pc-linux-gnu"

%struct.dt_pthread_mutex_t = type { %union.pthread_mutex_t }
%union.pthread_mutex_t = type { %struct.__pthread_mutex_s }
%struct.__pthread_mutex_s = type { i32, i32, i32, i32, i32, i16, i16, %struct.__pthread_internal_list }
%struct.__pthread_internal_list = type { ptr, ptr }
%struct.dt_iop_module_t = type { i32, ptr, ptr, ptr, ptr, ptr, ptr, ptr, ptr, ptr, ptr, ptr, ptr, ptr, ptr, ptr, ptr, ptr, ptr, ptr, ptr, ptr, ptr, ptr, ptr, ptr, ptr, ptr, ptr, ptr, ptr, ptr, ptr, ptr, ptr, ptr, ptr, ptr, ptr, ptr, ptr, ptr, ptr, ptr, ptr, ptr, ptr, ptr, ptr, ptr, ptr, ptr, ptr, ptr, ptr, ptr, ptr, [20 x i8], i32, i32, i32, i32, i32, i32, i32, [8 x i8], [4 x float], [4 x float], [4 x float], [4 x float], [4 x float], [4 x float], ptr, %struct.dt_dev_histogram_stats_t, [4 x i32], i32, i32, ptr, i32, i32, ptr, ptr, i32, ptr, %struct.dt_pthread_mutex_t, ptr, ptr, ptr, ptr, %struct.anon, ptr, ptr, ptr, ptr, ptr, ptr, ptr, i32, ptr, ptr, ptr, ptr, ptr, ptr, ptr, i32, ptr, i32, [128 x i8], i32, ptr, ptr, i32, [12 x i8] }
%struct.dt_dev_histogram_stats_t = type { i32, i64, i32, i32 }
%struct.anon = type { %struct.anon.0, %struct.anon.1 }
%struct.anon.0 = type { ptr, ptr }
%struct.anon.1 = type { ptr, i32 }
%struct.dt_iop_gui_blend_data_t = type { i32, i32, i32, i32, i32, i32, i32, ptr, ptr, ptr, ptr, ptr, ptr, ptr, ptr, ptr, ptr, ptr, ptr, ptr, [2 x %struct.dt_iop_gui_blendif_filter_t], ptr, ptr, ptr, ptr, ptr, ptr, ptr, ptr, ptr, ptr, ptr, ptr, i32, i32, ptr, i32, [8 x [2 x i32]], i32, i32, ptr, i32, ptr, ptr, ptr, [5 x ptr], [5 x i32], ptr, ptr, ptr, i32, ptr, ptr, i32, %struct.dt_pthread_mutex_t }
%struct.dt_iop_gui_blendif_filter_t = type { ptr, ptr, [4 x ptr], ptr, ptr, ptr }

@.str.46 = private unnamed_addr constant [11 x i8] c"drawn mask\00", align 1
@.str.102 = private unnamed_addr constant [17 x i8] c"dt_section_label\00", align 1
@.str.103 = private unnamed_addr constant [12 x i8] c"blend`tools\00", align 1
@.str.105 = private unnamed_addr constant [6 x i8] c"blend\00", align 1
@.str.116 = private unnamed_addr constant [19 x i8] c"dt_ignore_fg_state\00", align 1
@.str.124 = private unnamed_addr constant [14 x i8] c"value-changed\00", align 1
@.str.137 = private unnamed_addr constant [13 x i8] c"no mask used\00", align 1
@.str.138 = private unnamed_addr constant [12 x i8] c"masks_drawn\00", align 1
@.str.139 = private unnamed_addr constant [30 x i8] c"toggle polarity of drawn mask\00", align 1
@.str.140 = private unnamed_addr constant [28 x i8] c"show and edit mask elements\00", align 1
@.str.141 = private unnamed_addr constant [64 x i8] c"show and edit in restricted mode (no moving/resizing of shapes)\00", align 1
@.str.142 = private unnamed_addr constant [13 x i8] c"blend`shapes\00", align 1
@.str.143 = private unnamed_addr constant [13 x i8] c"add gradient\00", align 1
@.str.144 = private unnamed_addr constant [23 x i8] c"add multiple gradients\00", align 1
@.str.145 = private unnamed_addr constant [10 x i8] c"add brush\00", align 1
@.str.146 = private unnamed_addr constant [27 x i8] c"add multiple brush strokes\00", align 1
@.str.147 = private unnamed_addr constant [9 x i8] c"add path\00", align 1
@.str.148 = private unnamed_addr constant [19 x i8] c"add multiple paths\00", align 1
@.str.149 = private unnamed_addr constant [12 x i8] c"add ellipse\00", align 1
@.str.150 = private unnamed_addr constant [22 x i8] c"add multiple ellipses\00", align 1
@.str.151 = private unnamed_addr constant [11 x i8] c"add circle\00", align 1
@.str.152 = private unnamed_addr constant [21 x i8] c"add multiple circles\00", align 1

; Function Attrs: inlinehint nounwind uwtable
define internal ptr @DTGTK_TOGGLEBUTTON(ptr noundef %0) #3 {
  %2 = alloca ptr, align 8
  store ptr %0, ptr %2, align 8, !tbaa !168
  %3 = load ptr, ptr %2, align 8, !tbaa !168
  %4 = call i64 @dtgtk_togglebutton_get_type()
  %5 = call ptr @g_type_check_instance_cast(ptr noundef %3, i64 noundef %4)
  ret ptr %5
}

; Function Attrs: nounwind uwtable
define void @dt_iop_gui_init_masks(ptr noundef %0, ptr noundef %1) #0 {
  %3 = alloca ptr, align 8
  %4 = alloca ptr, align 8
  %5 = alloca ptr, align 8
  %6 = alloca ptr, align 8
  %7 = alloca ptr, align 8
  store ptr %0, ptr %3, align 8, !tbaa !11
  store ptr %1, ptr %4, align 8, !tbaa !6
  call void @llvm.lifetime.start.p0(i64 8, ptr %5) #11
  %8 = load ptr, ptr %4, align 8, !tbaa !6
  %9 = getelementptr inbounds nuw %struct.dt_iop_module_t, ptr %8, i32 0, i32 88
  %10 = load ptr, ptr %9, align 8, !tbaa !15
  store ptr %10, ptr %5, align 8, !tbaa !31
  %11 = call ptr @gtk_box_new(i32 noundef 1, i32 noundef 0)
  %12 = call i64 @gtk_box_get_type() #12
  %13 = call ptr @g_type_check_instance_cast(ptr noundef %11, i64 noundef %12)
  %14 = load ptr, ptr %5, align 8, !tbaa !31
  %15 = getelementptr inbounds nuw %struct.dt_iop_gui_blend_data_t, ptr %14, i32 0, i32 15
  store ptr %13, ptr %15, align 8, !tbaa !208
  %16 = load ptr, ptr %3, align 8, !tbaa !11
  %17 = load ptr, ptr %5, align 8, !tbaa !31
  %18 = getelementptr inbounds nuw %struct.dt_iop_gui_blend_data_t, ptr %17, i32 0, i32 15
  %19 = load ptr, ptr %18, align 8, !tbaa !208
  call void @_add_wrapped_box(ptr noundef %16, ptr noundef %19, ptr noundef @.str.138)
  %20 = load ptr, ptr %5, align 8, !tbaa !31
  %21 = getelementptr inbounds nuw %struct.dt_iop_gui_blend_data_t, ptr %20, i32 0, i32 3
  %22 = load i32, ptr %21, align 4, !tbaa !190
  %23 = icmp ne i32 %22, 0
  br i1 %23, label %24, label %142

24:                                               ; preds = %2
  %25 = load ptr, ptr %5, align 8, !tbaa !31
  %26 = getelementptr inbounds nuw %struct.dt_iop_gui_blend_data_t, ptr %25, i32 0, i32 49
  store ptr null, ptr %26, align 8, !tbaa !209
  %27 = load ptr, ptr %5, align 8, !tbaa !31
  %28 = getelementptr inbounds nuw %struct.dt_iop_gui_blend_data_t, ptr %27, i32 0, i32 50
  store i32 0, ptr %28, align 8, !tbaa !199
  call void @llvm.lifetime.start.p0(i64 8, ptr %6) #11
  %29 = call ptr @gtk_box_new(i32 noundef 0, i32 noundef 0)
  store ptr %29, ptr %6, align 8, !tbaa !11
  %30 = load ptr, ptr %6, align 8, !tbaa !11
  call void @dt_gui_add_class(ptr noundef %30, ptr noundef @.str.102)
  %31 = load ptr, ptr %4, align 8, !tbaa !6
  %32 = call ptr @dt_bauhaus_combobox_new(ptr noundef %31)
  %33 = load ptr, ptr %5, align 8, !tbaa !31
  %34 = getelementptr inbounds nuw %struct.dt_iop_gui_blend_data_t, ptr %33, i32 0, i32 44
  store ptr %32, ptr %34, align 8, !tbaa !194
  %35 = load ptr, ptr %5, align 8, !tbaa !31
  %36 = getelementptr inbounds nuw %struct.dt_iop_gui_blend_data_t, ptr %35, i32 0, i32 44
  %37 = load ptr, ptr %36, align 8, !tbaa !194
  %38 = call ptr @dt_bauhaus_widget_set_label(ptr noundef %37, ptr noundef @.str.105, ptr noundef @.str.46)
  %39 = load ptr, ptr %5, align 8, !tbaa !31
  %40 = getelementptr inbounds nuw %struct.dt_iop_gui_blend_data_t, ptr %39, i32 0, i32 44
  %41 = load ptr, ptr %40, align 8, !tbaa !194
  call void @dt_bauhaus_widget_set_section(ptr noundef %41, i32 noundef 1)
  %42 = load ptr, ptr %5, align 8, !tbaa !31
  %43 = getelementptr inbounds nuw %struct.dt_iop_gui_blend_data_t, ptr %42, i32 0, i32 44
  %44 = load ptr, ptr %43, align 8, !tbaa !194
  %45 = call ptr @dcgettext(ptr noundef null, ptr noundef @.str.137, i32 noundef 5) #11
  call void @dt_bauhaus_combobox_add(ptr noundef %44, ptr noundef %45)
  %46 = load ptr, ptr %5, align 8, !tbaa !31
  %47 = getelementptr inbounds nuw %struct.dt_iop_gui_blend_data_t, ptr %46, i32 0, i32 44
  %48 = load ptr, ptr %47, align 8, !tbaa !194
  %49 = call ptr @g_type_check_instance_cast(ptr noundef %48, i64 noundef 80)
  %50 = load ptr, ptr %4, align 8, !tbaa !6
  %51 = call i64 @g_signal_connect_data(ptr noundef %49, ptr noundef @.str.124, ptr noundef @dt_masks_iop_value_changed_callback, ptr noundef %50, ptr noundef null, i32 noundef 0)
  %52 = load ptr, ptr %5, align 8, !tbaa !31
  %53 = getelementptr inbounds nuw %struct.dt_iop_gui_blend_data_t, ptr %52, i32 0, i32 44
  %54 = load ptr, ptr %53, align 8, !tbaa !194
  call void @dt_bauhaus_combobox_add_populate_fct(ptr noundef %54, ptr noundef @dt_masks_iop_combo_populate)
  %55 = load ptr, ptr %6, align 8, !tbaa !11
  %56 = call i64 @gtk_box_get_type() #12
  %57 = call ptr @g_type_check_instance_cast(ptr noundef %55, i64 noundef %56)
  %58 = load ptr, ptr %5, align 8, !tbaa !31
  %59 = getelementptr inbounds nuw %struct.dt_iop_gui_blend_data_t, ptr %58, i32 0, i32 44
  %60 = load ptr, ptr %59, align 8, !tbaa !194
  call void @gtk_box_pack_start(ptr noundef %57, ptr noundef %60, i32 noundef 1, i32 noundef 1, i32 noundef 0)
  %61 = load ptr, ptr %4, align 8, !tbaa !6
  %62 = load ptr, ptr %6, align 8, !tbaa !11
  %63 = call ptr @dt_iop_togglebutton_new(ptr noundef %61, ptr noundef @.str.103, ptr noundef @.str.139, ptr noundef null, ptr noundef @_blendop_masks_polarity_callback, i32 noundef 0, i32 noundef 0, i32 noundef 0, ptr noundef @dtgtk_cairo_paint_plusminus, ptr noundef %62)
  %64 = load ptr, ptr %5, align 8, !tbaa !31
  %65 = getelementptr inbounds nuw %struct.dt_iop_gui_blend_data_t, ptr %64, i32 0, i32 48
  store ptr %63, ptr %65, align 8, !tbaa !201
  %66 = load ptr, ptr %5, align 8, !tbaa !31
  %67 = getelementptr inbounds nuw %struct.dt_iop_gui_blend_data_t, ptr %66, i32 0, i32 48
  %68 = load ptr, ptr %67, align 8, !tbaa !201
  %69 = call ptr @DTGTK_TOGGLEBUTTON(ptr noundef %68)
  call void @dtgtk_togglebutton_set_paint(ptr noundef %69, ptr noundef @dtgtk_cairo_paint_plusminus, i32 noundef 0, ptr noundef null)
  %70 = load ptr, ptr %5, align 8, !tbaa !31
  %71 = getelementptr inbounds nuw %struct.dt_iop_gui_blend_data_t, ptr %70, i32 0, i32 48
  %72 = load ptr, ptr %71, align 8, !tbaa !201
  call void @dt_gui_add_class(ptr noundef %72, ptr noundef @.str.116)
  call void @llvm.lifetime.start.p0(i64 8, ptr %7) #11
  %73 = call ptr @gtk_box_new(i32 noundef 0, i32 noundef 0)
  store ptr %73, ptr %7, align 8, !tbaa !11
  %74 = load ptr, ptr %4, align 8, !tbaa !6
  %75 = load ptr, ptr %7, align 8, !tbaa !11
  %76 = call ptr @dt_iop_togglebutton_new(ptr noundef %74, ptr noundef @.str.103, ptr noundef @.str.140, ptr noundef @.str.141, ptr noundef @_blendop_masks_show_and_edit, i32 noundef 0, i32 noundef 0, i32 noundef 0, ptr noundef @dtgtk_cairo_paint_masks_eye, ptr noundef %75)
  %77 = load ptr, ptr %5, align 8, !tbaa !31
  %78 = getelementptr inbounds nuw %struct.dt_iop_gui_blend_data_t, ptr %77, i32 0, i32 47
  store ptr %76, ptr %78, align 8, !tbaa !200
  %79 = load ptr, ptr %5, align 8, !tbaa !31
  %80 = getelementptr inbounds nuw %struct.dt_iop_gui_blend_data_t, ptr %79, i32 0, i32 46
  %81 = getelementptr inbounds [5 x i32], ptr %80, i64 0, i64 0
  store i32 16, ptr %81, align 8, !tbaa !80
  %82 = load ptr, ptr %4, align 8, !tbaa !6
  %83 = load ptr, ptr %7, align 8, !tbaa !11
  %84 = call ptr @dt_iop_togglebutton_new(ptr noundef %82, ptr noundef @.str.142, ptr noundef @.str.143, ptr noundef @.str.144, ptr noundef @_blendop_masks_add_shape, i32 noundef 0, i32 noundef 0, i32 noundef 0, ptr noundef @dtgtk_cairo_paint_masks_gradient, ptr noundef %83)
  %85 = load ptr, ptr %5, align 8, !tbaa !31
  %86 = getelementptr inbounds nuw %struct.dt_iop_gui_blend_data_t, ptr %85, i32 0, i32 45
  %87 = getelementptr inbounds [5 x ptr], ptr %86, i64 0, i64 0
  store ptr %84, ptr %87, align 8, !tbaa !11
  %88 = load ptr, ptr %5, align 8, !tbaa !31
  %89 = getelementptr inbounds nuw %struct.dt_iop_gui_blend_data_t, ptr %88, i32 0, i32 46
  %90 = getelementptr inbounds [5 x i32], ptr %89, i64 0, i64 4
  store i32 64, ptr %90, align 8, !tbaa !80
  %91 = load ptr, ptr %4, align 8, !tbaa !6
  %92 = load ptr, ptr %7, align 8, !tbaa !11
  %93 = call ptr @dt_iop_togglebutton_new(ptr noundef %91, ptr noundef @.str.142, ptr noundef @.str.145, ptr noundef @.str.146, ptr noundef @_blendop_masks_add_shape, i32 noundef 0, i32 noundef 0, i32 noundef 0, ptr noundef @dtgtk_cairo_paint_masks_brush, ptr noundef %92)
  %94 = load ptr, ptr %5, align 8, !tbaa !31
  %95 = getelementptr inbounds nuw %struct.dt_iop_gui_blend_data_t, ptr %94, i32 0, i32 45
  %96 = getelementptr inbounds [5 x ptr], ptr %95, i64 0, i64 4
  store ptr %93, ptr %96, align 8, !tbaa !11
  %97 = load ptr, ptr %5, align 8, !tbaa !31
  %98 = getelementptr inbounds nuw %struct.dt_iop_gui_blend_data_t, ptr %97, i32 0, i32 46
  %99 = getelementptr inbounds [5 x i32], ptr %98, i64 0, i64 1
  store i32 2, ptr %99, align 4, !tbaa !80
  %100 = load ptr, ptr %4, align 8, !tbaa !6
  %101 = load ptr, ptr %7, align 8, !tbaa !11
  %102 = call ptr @dt_iop_togglebutton_new(ptr noundef %100, ptr noundef @.str.142, ptr noundef @.str.147, ptr noundef @.str.148, ptr noundef @_blendop_masks_add_shape, i32 noundef 0, i32 noundef 0, i32 noundef 0, ptr noundef @dtgtk_cairo_paint_masks_path, ptr noundef %101)
  %103 = load ptr, ptr %5, align 8, !tbaa !31
  %104 = getelementptr inbounds nuw %struct.dt_iop_gui_blend_data_t, ptr %103, i32 0, i32 45
  %105 = getelementptr inbounds [5 x ptr], ptr %104, i64 0, i64 1
  store ptr %102, ptr %105, align 8, !tbaa !11
  %106 = load ptr, ptr %5, align 8, !tbaa !31
  %107 = getelementptr inbounds nuw %struct.dt_iop_gui_blend_data_t, ptr %106, i32 0, i32 46
  %108 = getelementptr inbounds [5 x i32], ptr %107, i64 0, i64 2
  store i32 32, ptr %108, align 8, !tbaa !80
  %109 = load ptr, ptr %4, align 8, !tbaa !6
  %110 = load ptr, ptr %7, align 8, !tbaa !11
  %111 = call ptr @dt_iop_togglebutton_new(ptr noundef %109, ptr noundef @.str.142, ptr noundef @.str.149, ptr noundef @.str.150, ptr noundef @_blendop_masks_add_shape, i32 noundef 0, i32 noundef 0, i32 noundef 0, ptr noundef @dtgtk_cairo_paint_masks_ellipse, ptr noundef %110)
  %112 = load ptr, ptr %5, align 8, !tbaa !31
  %113 = getelementptr inbounds nuw %struct.dt_iop_gui_blend_data_t, ptr %112, i32 0, i32 45
  %114 = getelementptr inbounds [5 x ptr], ptr %113, i64 0, i64 2
  store ptr %111, ptr %114, align 8, !tbaa !11
  %115 = load ptr, ptr %5, align 8, !tbaa !31
  %116 = getelementptr inbounds nuw %struct.dt_iop_gui_blend_data_t, ptr %115, i32 0, i32 46
  %117 = getelementptr inbounds [5 x i32], ptr %116, i64 0, i64 3
  store i32 1, ptr %117, align 4, !tbaa !80
  %118 = load ptr, ptr %4, align 8, !tbaa !6
  %119 = load ptr, ptr %7, align 8, !tbaa !11
  %120 = call ptr @dt_iop_togglebutton_new(ptr noundef %118, ptr noundef @.str.142, ptr noundef @.str.151, ptr noundef @.str.152, ptr noundef @_blendop_masks_add_shape, i32 noundef 0, i32 noundef 0, i32 noundef 0, ptr noundef @dtgtk_cairo_paint_masks_circle, ptr noundef %119)
  %121 = load ptr, ptr %5, align 8, !tbaa !31
  %122 = getelementptr inbounds nuw %struct.dt_iop_gui_blend_data_t, ptr %121, i32 0, i32 45
  %123 = getelementptr inbounds [5 x ptr], ptr %122, i64 0, i64 3
  store ptr %120, ptr %123, align 8, !tbaa !11
  %124 = load ptr, ptr %5, align 8, !tbaa !31
  %125 = getelementptr inbounds nuw %struct.dt_iop_gui_blend_data_t, ptr %124, i32 0, i32 15
  %126 = load ptr, ptr %125, align 8, !tbaa !208
  %127 = call i64 @gtk_box_get_type() #12
  %128 = call ptr @g_type_check_instance_cast(ptr noundef %126, i64 noundef %127)
  %129 = load ptr, ptr %6, align 8, !tbaa !11
  %130 = call i64 @gtk_widget_get_type() #12
  %131 = call ptr @g_type_check_instance_cast(ptr noundef %129, i64 noundef %130)
  call void @gtk_box_pack_start(ptr noundef %128, ptr noundef %131, i32 noundef 1, i32 noundef 1, i32 noundef 0)
  %132 = load ptr, ptr %5, align 8, !tbaa !31
  %133 = getelementptr inbounds nuw %struct.dt_iop_gui_blend_data_t, ptr %132, i32 0, i32 15
  %134 = load ptr, ptr %133, align 8, !tbaa !208
  %135 = call i64 @gtk_box_get_type() #12
  %136 = call ptr @g_type_check_instance_cast(ptr noundef %134, i64 noundef %135)
  %137 = load ptr, ptr %7, align 8, !tbaa !11
  %138 = call i64 @gtk_widget_get_type() #12
  %139 = call ptr @g_type_check_instance_cast(ptr noundef %137, i64 noundef %138)
  call void @gtk_box_pack_start(ptr noundef %136, ptr noundef %139, i32 noundef 1, i32 noundef 1, i32 noundef 0)
  %140 = load ptr, ptr %5, align 8, !tbaa !31
  %141 = getelementptr inbounds nuw %struct.dt_iop_gui_blend_data_t, ptr %140, i32 0, i32 4
  store i32 1, ptr %141, align 8, !tbaa !191
  call void @llvm.lifetime.end.p0(i64 8, ptr %7) #11
  call void @llvm.lifetime.end.p0(i64 8, ptr %6) #11
  br label %142

142:                                              ; preds = %24, %2
  call void @llvm.lifetime.end.p0(i64 8, ptr %5) #11
  ret void
}