; Function Attrs: nounwind uwtable
define void @dt_iop_gui_init_masks(ptr noundef %0, ptr noundef %1) local_unnamed_addr #0 {
  %3 = getelementptr inbounds nuw i8, ptr %1, i64 776
  %4 = load ptr, ptr %3, align 8, !tbaa !6
  %5 = tail call ptr @gtk_box_new(i32 noundef 1, i32 noundef 0) #18
  %6 = tail call i64 @gtk_box_get_type() #19
  %7 = tail call ptr @g_type_check_instance_cast(ptr noundef %5, i64 noundef %6) #18
  %8 = getelementptr inbounds nuw i8, ptr %4, i64 96
  store ptr %7, ptr %8, align 8, !tbaa !180
  tail call fastcc void @_add_wrapped_box(ptr noundef %0, ptr noundef %7, ptr noundef nonnull @.str.138)
  %9 = getelementptr inbounds nuw i8, ptr %4, i64 12
  %10 = load i32, ptr %9, align 4, !tbaa !162
  %.not = icmp eq i32 %10, 0
  br i1 %.not, label %58, label %11

11:                                               ; preds = %2
  %12 = getelementptr inbounds nuw i8, ptr %4, i64 592
  store ptr null, ptr %12, align 8, !tbaa !181
  %13 = getelementptr inbounds nuw i8, ptr %4, i64 600
  store i32 0, ptr %13, align 8, !tbaa !170
  %14 = tail call ptr @gtk_box_new(i32 noundef 0, i32 noundef 0) #18
  tail call void @dt_gui_add_class(ptr noundef %14, ptr noundef nonnull @.str.102) #18
  %15 = tail call ptr @dt_bauhaus_combobox_new(ptr noundef nonnull %1) #18
  %16 = getelementptr inbounds nuw i8, ptr %4, i64 504
  store ptr %15, ptr %16, align 8, !tbaa !165
  %17 = tail call ptr @dt_bauhaus_widget_set_label(ptr noundef %15, ptr noundef nonnull @.str.105, ptr noundef nonnull @.str.46) #18
  %18 = load ptr, ptr %16, align 8, !tbaa !165
  tail call void @dt_bauhaus_widget_set_section(ptr noundef %18, i32 noundef 1) #18
  %19 = load ptr, ptr %16, align 8, !tbaa !165
  %20 = tail call ptr @dcgettext(ptr noundef null, ptr noundef nonnull @.str.137, i32 noundef 5) #18
  tail call void @dt_bauhaus_combobox_add(ptr noundef %19, ptr noundef %20) #18
  %21 = load ptr, ptr %16, align 8, !tbaa !165
  %22 = tail call ptr @g_type_check_instance_cast(ptr noundef %21, i64 noundef 80) #18
  %23 = tail call i64 @g_signal_connect_data(ptr noundef %22, ptr noundef nonnull @.str.124, ptr noundef nonnull @dt_masks_iop_value_changed_callback, ptr noundef nonnull %1, ptr noundef null, i32 noundef 0) #18
  %24 = load ptr, ptr %16, align 8, !tbaa !165
  tail call void @dt_bauhaus_combobox_add_populate_fct(ptr noundef %24, ptr noundef nonnull @dt_masks_iop_combo_populate) #18
  %25 = tail call ptr @g_type_check_instance_cast(ptr noundef %14, i64 noundef %6) #18
  %26 = load ptr, ptr %16, align 8, !tbaa !165
  tail call void @gtk_box_pack_start(ptr noundef %25, ptr noundef %26, i32 noundef 1, i32 noundef 1, i32 noundef 0) #18
  %27 = tail call ptr @dt_iop_togglebutton_new(ptr noundef nonnull %1, ptr noundef nonnull @.str.103, ptr noundef nonnull @.str.139, ptr noundef null, ptr noundef nonnull @_blendop_masks_polarity_callback, i32 noundef 0, i32 noundef 0, i32 noundef 0, ptr noundef nonnull @dtgtk_cairo_paint_plusminus, ptr noundef %14) #18
  %28 = getelementptr inbounds nuw i8, ptr %4, i64 584
  store ptr %27, ptr %28, align 8, !tbaa !172
  %29 = tail call i64 @dtgtk_togglebutton_get_type() #18
  %30 = tail call ptr @g_type_check_instance_cast(ptr noundef %27, i64 noundef %29) #18
  tail call void @dtgtk_togglebutton_set_paint(ptr noundef %30, ptr noundef nonnull @dtgtk_cairo_paint_plusminus, i32 noundef 0, ptr noundef null) #18
  %31 = load ptr, ptr %28, align 8, !tbaa !172
  tail call void @dt_gui_add_class(ptr noundef %31, ptr noundef nonnull @.str.116) #18
  %32 = tail call ptr @gtk_box_new(i32 noundef 0, i32 noundef 0) #18
  %33 = tail call ptr @dt_iop_togglebutton_new(ptr noundef nonnull %1, ptr noundef nonnull @.str.103, ptr noundef nonnull @.str.140, ptr noundef nonnull @.str.141, ptr noundef nonnull @_blendop_masks_show_and_edit, i32 noundef 0, i32 noundef 0, i32 noundef 0, ptr noundef nonnull @dtgtk_cairo_paint_masks_eye, ptr noundef %32) #18
  %34 = getelementptr inbounds nuw i8, ptr %4, i64 576
  store ptr %33, ptr %34, align 8, !tbaa !171
  %35 = getelementptr inbounds nuw i8, ptr %4, i64 552
  store i32 16, ptr %35, align 8, !tbaa !77
  %36 = tail call ptr @dt_iop_togglebutton_new(ptr noundef nonnull %1, ptr noundef nonnull @.str.142, ptr noundef nonnull @.str.143, ptr noundef nonnull @.str.144, ptr noundef nonnull @_blendop_masks_add_shape, i32 noundef 0, i32 noundef 0, i32 noundef 0, ptr noundef nonnull @dtgtk_cairo_paint_masks_gradient, ptr noundef %32) #18
  %37 = getelementptr inbounds nuw i8, ptr %4, i64 512
  store ptr %36, ptr %37, align 8, !tbaa !179
  %38 = getelementptr inbounds nuw i8, ptr %4, i64 568
  store i32 64, ptr %38, align 8, !tbaa !77
  %39 = tail call ptr @dt_iop_togglebutton_new(ptr noundef nonnull %1, ptr noundef nonnull @.str.142, ptr noundef nonnull @.str.145, ptr noundef nonnull @.str.146, ptr noundef nonnull @_blendop_masks_add_shape, i32 noundef 0, i32 noundef 0, i32 noundef 0, ptr noundef nonnull @dtgtk_cairo_paint_masks_brush, ptr noundef %32) #18
  %40 = getelementptr inbounds nuw i8, ptr %4, i64 544
  store ptr %39, ptr %40, align 8, !tbaa !179
  %41 = getelementptr inbounds nuw i8, ptr %4, i64 556
  store i32 2, ptr %41, align 4, !tbaa !77
  %42 = tail call ptr @dt_iop_togglebutton_new(ptr noundef nonnull %1, ptr noundef nonnull @.str.142, ptr noundef nonnull @.str.147, ptr noundef nonnull @.str.148, ptr noundef nonnull @_blendop_masks_add_shape, i32 noundef 0, i32 noundef 0, i32 noundef 0, ptr noundef nonnull @dtgtk_cairo_paint_masks_path, ptr noundef %32) #18
  %43 = getelementptr inbounds nuw i8, ptr %4, i64 520
  store ptr %42, ptr %43, align 8, !tbaa !179
  %44 = getelementptr inbounds nuw i8, ptr %4, i64 560
  store i32 32, ptr %44, align 8, !tbaa !77
  %45 = tail call ptr @dt_iop_togglebutton_new(ptr noundef nonnull %1, ptr noundef nonnull @.str.142, ptr noundef nonnull @.str.149, ptr noundef nonnull @.str.150, ptr noundef nonnull @_blendop_masks_add_shape, i32 noundef 0, i32 noundef 0, i32 noundef 0, ptr noundef nonnull @dtgtk_cairo_paint_masks_ellipse, ptr noundef %32) #18
  %46 = getelementptr inbounds nuw i8, ptr %4, i64 528
  store ptr %45, ptr %46, align 8, !tbaa !179
  %47 = getelementptr inbounds nuw i8, ptr %4, i64 564
  store i32 1, ptr %47, align 4, !tbaa !77
  %48 = tail call ptr @dt_iop_togglebutton_new(ptr noundef nonnull %1, ptr noundef nonnull @.str.142, ptr noundef nonnull @.str.151, ptr noundef nonnull @.str.152, ptr noundef nonnull @_blendop_masks_add_shape, i32 noundef 0, i32 noundef 0, i32 noundef 0, ptr noundef nonnull @dtgtk_cairo_paint_masks_circle, ptr noundef %32) #18
  %49 = getelementptr inbounds nuw i8, ptr %4, i64 536
  store ptr %48, ptr %49, align 8, !tbaa !179
  %50 = load ptr, ptr %8, align 8, !tbaa !180
  %51 = tail call ptr @g_type_check_instance_cast(ptr noundef %50, i64 noundef %6) #18
  %52 = tail call i64 @gtk_widget_get_type() #19
  %53 = tail call ptr @g_type_check_instance_cast(ptr noundef %14, i64 noundef %52) #18
  tail call void @gtk_box_pack_start(ptr noundef %51, ptr noundef %53, i32 noundef 1, i32 noundef 1, i32 noundef 0) #18
  %54 = load ptr, ptr %8, align 8, !tbaa !180
  %55 = tail call ptr @g_type_check_instance_cast(ptr noundef %54, i64 noundef %6) #18
  %56 = tail call ptr @g_type_check_instance_cast(ptr noundef %32, i64 noundef %52) #18
  tail call void @gtk_box_pack_start(ptr noundef %55, ptr noundef %56, i32 noundef 1, i32 noundef 1, i32 noundef 0) #18
  %57 = getelementptr inbounds nuw i8, ptr %4, i64 16
  store i32 1, ptr %57, align 8, !tbaa !163
  br label %58

58:                                               ; preds = %11, %2
  ret void
}